target datalayout = "e-m:e-p270:32:32-p271:32:32-p272:64:64-i64:64-i128:128-f80:128-n8:16:32:64-S128"
target triple = "x86_64-pc-linux-gnu"

%struct.pcre2_real_compile_context_8 = type { %struct.pcre2_memctl, ptr, ptr, ptr, i64, i64, i16, i16, i32, i32, i32, i32 }
%struct.pcre2_memctl = type { ptr, ptr, ptr }
%struct.pcre2_real_general_context_8 = type { %struct.pcre2_memctl }
%struct.pcre2_real_code_8 = type { %struct.pcre2_memctl, ptr, ptr, [32 x i8], i64, i64, i32, i32, i32, i32, i32, i32, i32, i32, i32, i32, i16, i16, i16, i16, i16, i16, i16, i16, i32 }
%struct.pcre2_serialized_data = type { i32, i32, i32, i32 }

@_pcre2_default_compile_context_8 = external global %struct.pcre2_real_compile_context_8, align 8

; Function Attrs: nounwind uwtable
define dso_local i32 @php_pcre2_serialize_decode(ptr noundef %0, i32 noundef %1, ptr noundef %2, ptr noundef %3) #0 {
  %5 = alloca i32, align 4
  %6 = alloca ptr, align 8
  %7 = alloca i32, align 4
  %8 = alloca ptr, align 8
  %9 = alloca ptr, align 8
  %10 = alloca ptr, align 8
  %11 = alloca ptr, align 8
  %12 = alloca ptr, align 8
  %13 = alloca ptr, align 8
  %14 = alloca ptr, align 8
  %15 = alloca i32, align 4
  %16 = alloca i32, align 4
  %17 = alloca i32, align 4
  %18 = alloca i64, align 8
  store ptr %0, ptr %6, align 8, !tbaa !4
  store i32 %1, ptr %7, align 4, !tbaa !9
  store ptr %2, ptr %8, align 8, !tbaa !21
  store ptr %3, ptr %9, align 8, !tbaa !15
  call void @llvm.lifetime.start.p0(i64 8, ptr %10) #5
  %19 = load ptr, ptr %8, align 8, !tbaa !21
  store ptr %19, ptr %10, align 8, !tbaa !33
  call void @llvm.lifetime.start.p0(i64 8, ptr %11) #5
  %20 = load ptr, ptr %9, align 8, !tbaa !15
  %21 = icmp ne ptr %20, null
  br i1 %21, label %22, label %25

22:                                               ; preds = %4
  %23 = load ptr, ptr %9, align 8, !tbaa !15
  %24 = getelementptr inbounds nuw %struct.pcre2_real_general_context_8, ptr %23, i32 0, i32 0
  br label %26

25:                                               ; preds = %4
  br label %26

26:                                               ; preds = %25, %22
  %27 = phi ptr [ %24, %22 ], [ @_pcre2_default_compile_context_8, %25 ]
  store ptr %27, ptr %11, align 8, !tbaa !17
  call void @llvm.lifetime.start.p0(i64 8, ptr %12) #5
  call void @llvm.lifetime.start.p0(i64 8, ptr %13) #5
  call void @llvm.lifetime.start.p0(i64 8, ptr %14) #5
  call void @llvm.lifetime.start.p0(i64 4, ptr %15) #5
  call void @llvm.lifetime.start.p0(i64 4, ptr %16) #5
  %28 = load ptr, ptr %10, align 8, !tbaa !33
  %29 = icmp eq ptr %28, null
  br i1 %29, label %33, label %30

30:                                               ; preds = %26
  %31 = load ptr, ptr %6, align 8, !tbaa !4
  %32 = icmp eq ptr %31, null
  br i1 %32, label %33, label %34

33:                                               ; preds = %30, %26
  store i32 -51, ptr %5, align 4
  store i32 1, ptr %17, align 4
  br label %201

34:                                               ; preds = %30
  %35 = load i32, ptr %7, align 4, !tbaa !9
  %36 = icmp sle i32 %35, 0
  br i1 %36, label %37, label %38

37:                                               ; preds = %34
  store i32 -29, ptr %5, align 4
  store i32 1, ptr %17, align 4
  br label %201

38:                                               ; preds = %34
  %39 = load ptr, ptr %10, align 8, !tbaa !33
  %40 = getelementptr inbounds nuw %struct.pcre2_serialized_data, ptr %39, i32 0, i32 3
  %41 = load i32, ptr %40, align 4, !tbaa !39
  %42 = icmp sle i32 %41, 0
  br i1 %42, label %43, label %44

43:                                               ; preds = %38
  store i32 -62, ptr %5, align 4
  store i32 1, ptr %17, align 4
  br label %201

44:                                               ; preds = %38
  %45 = load ptr, ptr %10, align 8, !tbaa !33
  %46 = getelementptr inbounds nuw %struct.pcre2_serialized_data, ptr %45, i32 0, i32 0
  %47 = load i32, ptr %46, align 4, !tbaa !35
  %48 = icmp ne i32 %47, 1347564115
  br i1 %48, label %49, label %50

49:                                               ; preds = %44
  store i32 -31, ptr %5, align 4
  store i32 1, ptr %17, align 4
  br label %201

50:                                               ; preds = %44
  %51 = load ptr, ptr %10, align 8, !tbaa !33
  %52 = getelementptr inbounds nuw %struct.pcre2_serialized_data, ptr %51, i32 0, i32 1
  %53 = load i32, ptr %52, align 4, !tbaa !37
  %54 = icmp ne i32 %53, 2949130
  br i1 %54, label %55, label %56

55:                                               ; preds = %50
  store i32 -32, ptr %5, align 4
  store i32 1, ptr %17, align 4
  br label %201

56:                                               ; preds = %50
  %57 = load ptr, ptr %10, align 8, !tbaa !33
  %58 = getelementptr inbounds nuw %struct.pcre2_serialized_data, ptr %57, i32 0, i32 2
  %59 = load i32, ptr %58, align 4, !tbaa !38
  %60 = zext i32 %59 to i64
  %61 = icmp ne i64 %60, 526337
  br i1 %61, label %62, label %63

62:                                               ; preds = %56
  store i32 -32, ptr %5, align 4
  store i32 1, ptr %17, align 4
  br label %201

63:                                               ; preds = %56
  %64 = load i32, ptr %7, align 4, !tbaa !9
  %65 = load ptr, ptr %10, align 8, !tbaa !33
  %66 = getelementptr inbounds nuw %struct.pcre2_serialized_data, ptr %65, i32 0, i32 3
  %67 = load i32, ptr %66, align 4, !tbaa !39
  %68 = icmp sgt i32 %64, %67
  br i1 %68, label %69, label %73

69:                                               ; preds = %63
  %70 = load ptr, ptr %10, align 8, !tbaa !33
  %71 = getelementptr inbounds nuw %struct.pcre2_serialized_data, ptr %70, i32 0, i32 3
  %72 = load i32, ptr %71, align 4, !tbaa !39
  store i32 %72, ptr %7, align 4, !tbaa !9
  br label %73

73:                                               ; preds = %69, %63
  %74 = load ptr, ptr %8, align 8, !tbaa !21
  %75 = getelementptr inbounds nuw i8, ptr %74, i64 16
  store ptr %75, ptr %12, align 8, !tbaa !21
  %76 = load ptr, ptr %11, align 8, !tbaa !17
  %77 = getelementptr inbounds nuw %struct.pcre2_memctl, ptr %76, i32 0, i32 0
  %78 = load ptr, ptr %77, align 8, !tbaa !31
  %79 = load ptr, ptr %11, align 8, !tbaa !17
  %80 = getelementptr inbounds nuw %struct.pcre2_memctl, ptr %79, i32 0, i32 2
  %81 = load ptr, ptr %80, align 8, !tbaa !32
  %82 = call ptr %78(i64 noundef 1096, ptr noundef %81)
  store ptr %82, ptr %14, align 8, !tbaa !21
  %83 = load ptr, ptr %14, align 8, !tbaa !21
  %84 = icmp eq ptr %83, null
  br i1 %84, label %85, label %86

85:                                               ; preds = %73
  store i32 -48, ptr %5, align 4
  store i32 1, ptr %17, align 4
  br label %201

86:                                               ; preds = %73
  %87 = load ptr, ptr %14, align 8, !tbaa !21
  %88 = load ptr, ptr %12, align 8, !tbaa !21
  call void @llvm.memcpy.p0.p0.i64(ptr align 1 %87, ptr align 1 %88, i64 1088, i1 false)
  %89 = load i32, ptr %7, align 4, !tbaa !9
  %90 = sext i32 %89 to i64
  %91 = load ptr, ptr %14, align 8, !tbaa !21
  %92 = getelementptr inbounds i8, ptr %91, i64 1088
  store i64 %90, ptr %92, align 8, !tbaa !19
  %93 = load ptr, ptr %12, align 8, !tbaa !21
  %94 = getelementptr inbounds i8, ptr %93, i64 1088
  store ptr %94, ptr %12, align 8, !tbaa !21
  store i32 0, ptr %15, align 4, !tbaa !9
  br label %95

95:                                               ; preds = %196, %86
  %96 = load i32, ptr %15, align 4, !tbaa !9
  %97 = load i32, ptr %7, align 4, !tbaa !9
  %98 = icmp slt i32 %96, %97
  br i1 %98, label %99, label %199

99:                                               ; preds = %95
  call void @llvm.lifetime.start.p0(i64 8, ptr %18) #5
  %100 = load ptr, ptr %12, align 8, !tbaa !21
  %101 = getelementptr inbounds nuw i8, ptr %100, i64 72
  call void @llvm.memcpy.p0.p0.i64(ptr align 8 %18, ptr align 1 %101, i64 8, i1 false)
  %102 = load i64, ptr %18, align 8, !tbaa !19
  %103 = icmp ule i64 %102, 152
  br i1 %103, label %104, label %105

104:                                              ; preds = %99
  store i32 -62, ptr %5, align 4
  store i32 1, ptr %17, align 4
  br label %193

105:                                              ; preds = %99
  %106 = load i64, ptr %18, align 8, !tbaa !19
  %107 = load ptr, ptr %9, align 8, !tbaa !15
  %108 = call ptr @_pcre2_memctl_malloc_8(i64 noundef %106, ptr noundef %107)
  store ptr %108, ptr %13, align 8, !tbaa !23
  %109 = load ptr, ptr %13, align 8, !tbaa !23
  %110 = icmp eq ptr %109, null
  br i1 %110, label %111, label %143

111:                                              ; preds = %105
  %112 = load ptr, ptr %11, align 8, !tbaa !17
  %113 = getelementptr inbounds nuw %struct.pcre2_memctl, ptr %112, i32 0, i32 1
  %114 = load ptr, ptr %113, align 8, !tbaa !40
  %115 = load ptr, ptr %14, align 8, !tbaa !21
  %116 = load ptr, ptr %11, align 8, !tbaa !17
  %117 = getelementptr inbounds nuw %struct.pcre2_memctl, ptr %116, i32 0, i32 2
  %118 = load ptr, ptr %117, align 8, !tbaa !32
  call void %114(ptr noundef %115, ptr noundef %118)
  store i32 0, ptr %16, align 4, !tbaa !9
  br label %119

119:                                              ; preds = %139, %111
  %120 = load i32, ptr %16, align 4, !tbaa !9
  %121 = load i32, ptr %15, align 4, !tbaa !9
  %122 = icmp slt i32 %120, %121
  br i1 %122, label %123, label %142

123:                                              ; preds = %119
  %124 = load ptr, ptr %11, align 8, !tbaa !17
  %125 = getelementptr inbounds nuw %struct.pcre2_memctl, ptr %124, i32 0, i32 1
  %126 = load ptr, ptr %125, align 8, !tbaa !40
  %127 = load ptr, ptr %6, align 8, !tbaa !4
  %128 = load i32, ptr %16, align 4, !tbaa !9
  %129 = sext i32 %128 to i64
  %130 = getelementptr inbounds ptr, ptr %127, i64 %129
  %131 = load ptr, ptr %130, align 8, !tbaa !23
  %132 = load ptr, ptr %11, align 8, !tbaa !17
  %133 = getelementptr inbounds nuw %struct.pcre2_memctl, ptr %132, i32 0, i32 2
  %134 = load ptr, ptr %133, align 8, !tbaa !32
  call void %126(ptr noundef %131, ptr noundef %134)
  %135 = load ptr, ptr %6, align 8, !tbaa !4
  %136 = load i32, ptr %16, align 4, !tbaa !9
  %137 = sext i32 %136 to i64
  %138 = getelementptr inbounds ptr, ptr %135, i64 %137
  store ptr null, ptr %138, align 8, !tbaa !23
  br label %139

139:                                              ; preds = %123
  %140 = load i32, ptr %16, align 4, !tbaa !9
  %141 = add nsw i32 %140, 1
  store i32 %141, ptr %16, align 4, !tbaa !9
  br label %119

142:                                              ; preds = %119
  store i32 -48, ptr %5, align 4
  store i32 1, ptr %17, align 4
  br label %193

143:                                              ; preds = %105
  %144 = load ptr, ptr %13, align 8, !tbaa !23
  %145 = getelementptr inbounds nuw i8, ptr %144, i64 24
  %146 = load ptr, ptr %12, align 8, !tbaa !21
  %147 = getelementptr inbounds nuw i8, ptr %146, i64 24
  %148 = load i64, ptr %18, align 8, !tbaa !19
  %149 = sub i64 %148, 24
  call void @llvm.memcpy.p0.p0.i64(ptr align 1 %145, ptr align 1 %147, i64 %149, i1 false)
  %150 = load ptr, ptr %13, align 8, !tbaa !23
  %151 = getelementptr inbounds nuw %struct.pcre2_real_code_8, ptr %150, i32 0, i32 6
  %152 = load i32, ptr %151, align 8, !tbaa !25
  %153 = zext i32 %152 to i64
  %154 = icmp ne i64 %153, 1346589253
  br i1 %154, label %167, label %155

155:                                              ; preds = %143
  %156 = load ptr, ptr %13, align 8, !tbaa !23
  %157 = getelementptr inbounds nuw %struct.pcre2_real_code_8, ptr %156, i32 0, i32 22
  %158 = load i16, ptr %157, align 4, !tbaa !41
  %159 = zext i16 %158 to i32
  %160 = icmp sgt i32 %159, 131
  br i1 %160, label %167, label %161

161:                                              ; preds = %155
  %162 = load ptr, ptr %13, align 8, !tbaa !23
  %163 = getelementptr inbounds nuw %struct.pcre2_real_code_8, ptr %162, i32 0, i32 23
  %164 = load i16, ptr %163, align 2, !tbaa !42
  %165 = zext i16 %164 to i32
  %166 = icmp sgt i32 %165, 10000
  br i1 %166, label %167, label %175

167:                                              ; preds = %161, %155, %143
  %168 = load ptr, ptr %11, align 8, !tbaa !17
  %169 = getelementptr inbounds nuw %struct.pcre2_memctl, ptr %168, i32 0, i32 1
  %170 = load ptr, ptr %169, align 8, !tbaa !40
  %171 = load ptr, ptr %13, align 8, !tbaa !23
  %172 = load ptr, ptr %11, align 8, !tbaa !17
  %173 = getelementptr inbounds nuw %struct.pcre2_memctl, ptr %172, i32 0, i32 2
  %174 = load ptr, ptr %173, align 8, !tbaa !32
  call void %170(ptr noundef %171, ptr noundef %174)
  store i32 -62, ptr %5, align 4
  store i32 1, ptr %17, align 4
  br label %193

175:                                              ; preds = %161
  %176 = load ptr, ptr %14, align 8, !tbaa !21
  %177 = load ptr, ptr %13, align 8, !tbaa !23
  %178 = getelementptr inbounds nuw %struct.pcre2_real_code_8, ptr %177, i32 0, i32 1
  store ptr %176, ptr %178, align 8, !tbaa !29
  %179 = load ptr, ptr %13, align 8, !tbaa !23
  %180 = getelementptr inbounds nuw %struct.pcre2_real_code_8, ptr %179, i32 0, i32 2
  store ptr null, ptr %180, align 8, !tbaa !43
  %181 = load ptr, ptr %13, align 8, !tbaa !23
  %182 = getelementptr inbounds nuw %struct.pcre2_real_code_8, ptr %181, i32 0, i32 10
  %183 = load i32, ptr %182, align 8, !tbaa !44
  %184 = or i32 %183, 262144
  store i32 %184, ptr %182, align 8, !tbaa !44
  %185 = load ptr, ptr %13, align 8, !tbaa !23
  %186 = load ptr, ptr %6, align 8, !tbaa !4
  %187 = load i32, ptr %15, align 4, !tbaa !9
  %188 = sext i32 %187 to i64
  %189 = getelementptr inbounds ptr, ptr %186, i64 %188
  store ptr %185, ptr %189, align 8, !tbaa !23
  %190 = load i64, ptr %18, align 8, !tbaa !19
  %191 = load ptr, ptr %12, align 8, !tbaa !21
  %192 = getelementptr inbounds nuw i8, ptr %191, i64 %190
  store ptr %192, ptr %12, align 8, !tbaa !21
  store i32 0, ptr %17, align 4
  br label %193

193:                                              ; preds = %175, %167, %142, %104
  call void @llvm.lifetime.end.p0(i64 8, ptr %18) #5
  %194 = load i32, ptr %17, align 4
  switch i32 %194, label %201 [
    i32 0, label %195
  ]

195:                                              ; preds = %193
  br label %196

196:                                              ; preds = %195
  %197 = load i32, ptr %15, align 4, !tbaa !9
  %198 = add nsw i32 %197, 1
  store i32 %198, ptr %15, align 4, !tbaa !9
  br label %95

199:                                              ; preds = %95
  %200 = load i32, ptr %7, align 4, !tbaa !9
  store i32 %200, ptr %5, align 4
  store i32 1, ptr %17, align 4
  br label %201

201:                                              ; preds = %199, %193, %85, %62, %55, %49, %43, %37, %33
  call void @llvm.lifetime.end.p0(i64 4, ptr %16) #5
  call void @llvm.lifetime.end.p0(i64 4, ptr %15) #5
  call void @llvm.lifetime.end.p0(i64 8, ptr %14) #5
  call void @llvm.lifetime.end.p0(i64 8, ptr %13) #5
  call void @llvm.lifetime.end.p0(i64 8, ptr %12) #5
  call void @llvm.lifetime.end.p0(i64 8, ptr %11) #5
  call void @llvm.lifetime.end.p0(i64 8, ptr %10) #5
  %202 = load i32, ptr %5, align 4
  ret i32 %202
}