; Function Attrs: nounwind uwtable
define dso_local range(i32 -2147483647, -2147483648) i32 @php_pcre2_serialize_decode(ptr noundef captures(address_is_null) %0, i32 noundef %1, ptr noundef readonly captures(address_is_null) %2, ptr noundef %3) local_unnamed_addr #0 {
  %.not = icmp eq ptr %3, null
  %5 = select i1 %.not, ptr @_pcre2_default_compile_context_8, ptr %3
  %6 = icmp eq ptr %2, null
  %7 = icmp eq ptr %0, null
  %or.cond = or i1 %7, %6
  br i1 %or.cond, label %.thread, label %8

8:                                                ; preds = %4
  %9 = icmp slt i32 %1, 1
  br i1 %9, label %.thread, label %10

10:                                               ; preds = %8
  %11 = getelementptr inbounds nuw i8, ptr %2, i64 12
  %12 = load i32, ptr %11, align 4, !tbaa !24
  %13 = icmp slt i32 %12, 1
  br i1 %13, label %.thread, label %14

14:                                               ; preds = %10
  %15 = load i32, ptr %2, align 4, !tbaa !20
  %.not75 = icmp eq i32 %15, 1347564115
  br i1 %.not75, label %16, label %.thread

16:                                               ; preds = %14
  %17 = getelementptr inbounds nuw i8, ptr %2, i64 4
  %18 = load i32, ptr %17, align 4, !tbaa !22
  %.not76 = icmp eq i32 %18, 2949130
  br i1 %.not76, label %19, label %.thread

19:                                               ; preds = %16
  %20 = getelementptr inbounds nuw i8, ptr %2, i64 8
  %21 = load i32, ptr %20, align 4, !tbaa !23
  %.not77 = icmp eq i32 %21, 526337
  br i1 %.not77, label %22, label %.thread

22:                                               ; preds = %19
  %spec.select = tail call i32 @llvm.umin.i32(i32 %1, i32 %12)
  %23 = load ptr, ptr %5, align 8, !tbaa !18
  %24 = getelementptr inbounds nuw i8, ptr %5, i64 16
  %25 = load ptr, ptr %24, align 8, !tbaa !19
  %26 = tail call ptr %23(i64 noundef 1096, ptr noundef %25) #6
  %27 = icmp eq ptr %26, null
  br i1 %27, label %.thread, label %.lr.ph.preheader

.lr.ph.preheader:                                 ; preds = %22
  %28 = getelementptr inbounds nuw i8, ptr %2, i64 16
  tail call void @llvm.memcpy.p0.p0.i64(ptr noundef nonnull align 1 dereferenceable(1088) %26, ptr noundef nonnull align 1 dereferenceable(1088) %28, i64 1088, i1 false)
  %29 = zext nneg i32 %spec.select to i64
  %30 = getelementptr inbounds nuw i8, ptr %26, i64 1088
  store i64 %29, ptr %30, align 8, !tbaa !26
  %31 = getelementptr inbounds nuw i8, ptr %2, i64 1104
  br label %.lr.ph

.lr.ph:                                           ; preds = %.lr.ph.preheader, %63
  %indvars.iv101 = phi i32 [ 0, %.lr.ph.preheader ], [ %indvars.iv.next102, %63 ]
  %indvars.iv = phi i64 [ 0, %.lr.ph.preheader ], [ %indvars.iv.next, %63 ]
  %.06786 = phi ptr [ %31, %.lr.ph.preheader ], [ %69, %63 ]
  %32 = getelementptr inbounds nuw i8, ptr %.06786, i64 72
  %.0.copyload = load i64, ptr %32, align 1
  %33 = icmp ult i64 %.0.copyload, 153
  br i1 %33, label %.thread, label %34

34:                                               ; preds = %.lr.ph
  %35 = tail call ptr @_pcre2_memctl_malloc_8(i64 noundef %.0.copyload, ptr noundef %3) #6
  %36 = icmp eq ptr %35, null
  br i1 %36, label %37, label %45

37:                                               ; preds = %34
  %38 = getelementptr inbounds nuw i8, ptr %5, i64 8
  %39 = load ptr, ptr %38, align 8, !tbaa !27
  %40 = load ptr, ptr %24, align 8, !tbaa !19
  tail call void %39(ptr noundef nonnull %26, ptr noundef %40) #6
  %.not92 = icmp eq i64 %indvars.iv, 0
  br i1 %.not92, label %.thread, label %.lr.ph91.preheader

.lr.ph91.preheader:                               ; preds = %37
  %wide.trip.count105 = zext nneg i32 %indvars.iv101 to i64
  br label %.lr.ph91

.lr.ph91:                                         ; preds = %.lr.ph91.preheader, %.lr.ph91
  %indvars.iv98 = phi i64 [ 0, %.lr.ph91.preheader ], [ %indvars.iv.next99, %.lr.ph91 ]
  %41 = load ptr, ptr %38, align 8, !tbaa !27
  %42 = getelementptr inbounds nuw ptr, ptr %0, i64 %indvars.iv98
  %43 = load ptr, ptr %42, align 8, !tbaa !4
  %44 = load ptr, ptr %24, align 8, !tbaa !19
  tail call void %41(ptr noundef %43, ptr noundef %44) #6
  store ptr null, ptr %42, align 8, !tbaa !4
  %indvars.iv.next99 = add nuw nsw i64 %indvars.iv98, 1
  %exitcond106.not = icmp eq i64 %indvars.iv.next99, %wide.trip.count105
  br i1 %exitcond106.not, label %.thread, label %.lr.ph91

45:                                               ; preds = %34
  %46 = getelementptr inbounds nuw i8, ptr %35, i64 24
  %47 = getelementptr inbounds nuw i8, ptr %.06786, i64 24
  %48 = add i64 %.0.copyload, -24
  tail call void @llvm.memcpy.p0.p0.i64(ptr nonnull align 1 %46, ptr nonnull align 1 %47, i64 %48, i1 false)
  %49 = getelementptr inbounds nuw i8, ptr %35, i64 88
  %50 = load i32, ptr %49, align 8, !tbaa !9
  %.not78 = icmp eq i32 %50, 1346589253
  br i1 %.not78, label %51, label %59

51:                                               ; preds = %45
  %52 = getelementptr inbounds nuw i8, ptr %35, i64 140
  %53 = load i16, ptr %52, align 4, !tbaa !28
  %54 = icmp ugt i16 %53, 131
  br i1 %54, label %59, label %55

55:                                               ; preds = %51
  %56 = getelementptr inbounds nuw i8, ptr %35, i64 142
  %57 = load i16, ptr %56, align 2, !tbaa !29
  %58 = icmp ugt i16 %57, 10000
  br i1 %58, label %59, label %63

59:                                               ; preds = %55, %51, %45
  %60 = getelementptr inbounds nuw i8, ptr %5, i64 8
  %61 = load ptr, ptr %60, align 8, !tbaa !27
  %62 = load ptr, ptr %24, align 8, !tbaa !19
  tail call void %61(ptr noundef nonnull %35, ptr noundef %62) #6
  br label %.thread

63:                                               ; preds = %55
  store ptr %26, ptr %46, align 8, !tbaa !16
  %64 = getelementptr inbounds nuw i8, ptr %35, i64 32
  store ptr null, ptr %64, align 8, !tbaa !30
  %65 = getelementptr inbounds nuw i8, ptr %35, i64 104
  %66 = load i32, ptr %65, align 8, !tbaa !31
  %67 = or i32 %66, 262144
  store i32 %67, ptr %65, align 8, !tbaa !31
  %68 = getelementptr inbounds nuw ptr, ptr %0, i64 %indvars.iv
  store ptr %35, ptr %68, align 8, !tbaa !4
  %69 = getelementptr inbounds nuw i8, ptr %.06786, i64 %.0.copyload
  %indvars.iv.next = add nuw nsw i64 %indvars.iv, 1
  %exitcond.not = icmp eq i64 %indvars.iv.next, %29
  %indvars.iv.next102 = add nuw nsw i32 %indvars.iv101, 1
  br i1 %exitcond.not, label %.thread, label %.lr.ph

.thread:                                          ; preds = %63, %.lr.ph, %.lr.ph91, %37, %59, %22, %19, %16, %14, %10, %8, %4
  %.0 = phi i32 [ -51, %4 ], [ -29, %8 ], [ -62, %10 ], [ -31, %14 ], [ -32, %16 ], [ -32, %19 ], [ -48, %22 ], [ -62, %59 ], [ -48, %37 ], [ -48, %.lr.ph91 ], [ %spec.select, %63 ], [ -62, %.lr.ph ]
  ret i32 %.0
}